; Function Attrs: mustprogress uwtable
define void @_ZN7rocksdb19CuckooTableIterator10SeekToLastEv(ptr noundef nonnull align 8 dereferenceable(224) %this) unnamed_addr #2 align 2 {
entry:
  tail call void @_ZN7rocksdb19CuckooTableIterator12InitIfNeededEv(ptr noundef nonnull align 8 dereferenceable(224) %this)
  %sorted_bucket_ids_ = getelementptr inbounds i8, ptr %this, i64 104
  %_M_finish.i = getelementptr inbounds i8, ptr %this, i64 112
  %0 = load ptr, ptr %_M_finish.i, align 8
  %1 = load ptr, ptr %sorted_bucket_ids_, align 8
  %sub.ptr.lhs.cast.i = ptrtoint ptr %0 to i64
  %sub.ptr.rhs.cast.i = ptrtoint ptr %1 to i64
  %sub.ptr.sub.i = sub i64 %sub.ptr.lhs.cast.i, %sub.ptr.rhs.cast.i
  %sub.ptr.div.i = lshr exact i64 %sub.ptr.sub.i, 2
  %conv = trunc i64 %sub.ptr.div.i to i32
  %sub = add i32 %conv, -1
  %curr_key_idx_ = getelementptr inbounds i8, ptr %this, i64 128
  store i32 %sub, ptr %curr_key_idx_, align 8
  tail call void @_ZN7rocksdb19CuckooTableIterator18PrepareKVAtCurrIdxEv(ptr noundef nonnull align 8 dereferenceable(224) %this)
  ret void
}